target datalayout = "e-m:e-p270:32:32-p271:32:32-p272:64:64-i64:64-i128:128-f80:128-n8:16:32:64-S128"
target triple = "x86_64-pc-linux-gnu"

%struct.dictDefragFunctions = type { ptr, ptr, ptr }

@__const.activeDefragHfieldDict.defragfns = private unnamed_addr constant %struct.dictDefragFunctions { ptr @activeDefragAlloc, ptr null, ptr @activeDefragSds }, align 8

; Function Attrs: nounwind uwtable
define dso_local void @activeDefragHfieldDict(ptr noundef %0) #0 {
  %2 = alloca ptr, align 8
  %3 = alloca i64, align 8
  %4 = alloca %struct.dictDefragFunctions, align 8
  store ptr %0, ptr %2, align 8, !tbaa !53
  call void @llvm.lifetime.start.p0(i64 8, ptr %3) #10
  store i64 0, ptr %3, align 8, !tbaa !39
  call void @llvm.lifetime.start.p0(i64 24, ptr %4) #10
  call void @llvm.memcpy.p0.p0.i64(ptr align 8 %4, ptr align 8 @__const.activeDefragHfieldDict.defragfns, i64 24, i1 false)
  br label %5

5:                                                ; preds = %10, %1
  %6 = load ptr, ptr %2, align 8, !tbaa !53
  %7 = load i64, ptr %3, align 8, !tbaa !39
  %8 = load ptr, ptr %2, align 8, !tbaa !53
  %9 = call i64 @dictScanDefrag(ptr noundef %6, i64 noundef %7, ptr noundef @activeDefragHfieldDictCallback, ptr noundef %4, ptr noundef %8)
  store i64 %9, ptr %3, align 8, !tbaa !39
  br label %10

10:                                               ; preds = %5
  %11 = load i64, ptr %3, align 8, !tbaa !39
  %12 = icmp ne i64 %11, 0
  br i1 %12, label %5, label %13, !llvm.loop !86

13:                                               ; preds = %10
  call void @llvm.lifetime.end.p0(i64 24, ptr %4) #10
  call void @llvm.lifetime.end.p0(i64 8, ptr %3) #10
  ret void
}