; Function Attrs: nounwind uwtable
define dso_local void @activeDefragHfieldDict(ptr noundef %0) local_unnamed_addr #0 {
  %2 = alloca %struct.dictDefragFunctions, align 8
  call void @llvm.lifetime.start.p0(i64 24, ptr nonnull %2) #10
  call void @llvm.memcpy.p0.p0.i64(ptr noundef nonnull align 8 dereferenceable(24) %2, ptr noundef nonnull align 8 dereferenceable(24) @__const.scanLaterHash.defragfns, i64 24, i1 false)
  br label %3

3:                                                ; preds = %3, %1
  %.0 = phi i64 [ 0, %1 ], [ %4, %3 ]
  %4 = call i64 @dictScanDefrag(ptr noundef %0, i64 noundef %.0, ptr noundef nonnull @activeDefragHfieldDictCallback, ptr noundef nonnull %2, ptr noundef %0) #10
  %.not = icmp eq i64 %4, 0
  br i1 %.not, label %5, label %3, !llvm.loop !73

5:                                                ; preds = %3
  call void @llvm.lifetime.end.p0(i64 24, ptr nonnull %2) #10
  ret void
}